target datalayout = "e-m:e-p270:32:32-p271:32:32-p272:64:64-i64:64-i128:128-f80:128-n8:16:32:64-S128"
target triple = "x86_64-pc-linux-gnu"

%"class.std::vector.16" = type { %"struct.std::_Vector_base.17" }
%"struct.std::_Vector_base.17" = type { %"struct.std::_Vector_base<Variable *, std::allocator<Variable *>>::_Vector_impl" }
%"struct.std::_Vector_base<Variable *, std::allocator<Variable *>>::_Vector_impl" = type { %"struct.std::_Vector_base<Variable *, std::allocator<Variable *>>::_Vector_impl_data" }
%"struct.std::_Vector_base<Variable *, std::allocator<Variable *>>::_Vector_impl_data" = type { ptr, ptr, ptr }

@_ZN9OutputMgr14hash_func_nameE = dso_local global ptr @.str, align 8
@.str.13 = private unnamed_addr constant [2 x i8] c"}\00", align 1
@.str.17 = private unnamed_addr constant [6 x i8] c"void \00", align 1
@.str.19 = private unnamed_addr constant [2 x i8] c"{\00", align 1
@.str.29 = private unnamed_addr constant [7 x i8] c"(void)\00", align 1
@_ZN16VariableSelector10GlobalListE = external global %"class.std::vector.16", align 8

; Function Attrs: mustprogress nounwind uwtable
define linkonce_odr dso_local noundef ptr @_ZN16VariableSelector18GetGlobalVariablesEv() #4 comdat align 2 {
  ret ptr @_ZN16VariableSelector10GlobalListE
}

; Function Attrs: mustprogress uwtable
define dso_local void @_ZN9OutputMgr17OutputHashFuncDefERSo(ptr noundef nonnull align 8 dereferenceable(8) %0) #5 align 2 {
  %2 = alloca ptr, align 8
  %3 = alloca i64, align 8
  %4 = alloca ptr, align 8
  store ptr %0, ptr %2, align 8
  %5 = load ptr, ptr %2, align 8
  %6 = call noundef nonnull align 8 dereferenceable(8) ptr @_ZStlsISt11char_traitsIcEERSt13basic_ostreamIcT_ES5_PKc(ptr noundef nonnull align 8 dereferenceable(8) %5, ptr noundef @.str.17)
  %7 = load ptr, ptr @_ZN9OutputMgr14hash_func_nameE, align 8
  %8 = call noundef nonnull align 8 dereferenceable(8) ptr @_ZStlsISt11char_traitsIcEERSt13basic_ostreamIcT_ES5_PKc(ptr noundef nonnull align 8 dereferenceable(8) %6, ptr noundef %7)
  %9 = call noundef nonnull align 8 dereferenceable(8) ptr @_ZStlsISt11char_traitsIcEERSt13basic_ostreamIcT_ES5_PKc(ptr noundef nonnull align 8 dereferenceable(8) %8, ptr noundef @.str.29)
  %10 = call noundef nonnull align 8 dereferenceable(8) ptr @_ZNSolsEPFRSoS_E(ptr noundef nonnull align 8 dereferenceable(8) %9, ptr noundef @_ZSt4endlIcSt11char_traitsIcEERSt13basic_ostreamIT_T0_ES6_)
  %11 = load ptr, ptr %2, align 8
  %12 = call noundef nonnull align 8 dereferenceable(8) ptr @_ZStlsISt11char_traitsIcEERSt13basic_ostreamIcT_ES5_PKc(ptr noundef nonnull align 8 dereferenceable(8) %11, ptr noundef @.str.19)
  %13 = call noundef nonnull align 8 dereferenceable(8) ptr @_ZNSolsEPFRSoS_E(ptr noundef nonnull align 8 dereferenceable(8) %12, ptr noundef @_ZSt4endlIcSt11char_traitsIcEERSt13basic_ostreamIT_T0_ES6_)
  %14 = call noundef ptr @_ZN16VariableSelector18GetGlobalVariablesEv()
  %15 = call noundef i64 @_ZN8Variable20GetMaxArrayDimensionERKSt6vectorIPS_SaIS1_EE(ptr noundef nonnull align 8 dereferenceable(24) %14)
  store i64 %15, ptr %3, align 8
  %16 = load i64, ptr %3, align 8
  %17 = icmp ne i64 %16, 0
  br i1 %17, label %18, label %23

18:                                               ; preds = %1
  %19 = call noundef nonnull align 8 dereferenceable(24) ptr @_ZN8Variable17get_new_ctrl_varsEv()
  store ptr %19, ptr %4, align 8
  %20 = load ptr, ptr %4, align 8
  %21 = load ptr, ptr %2, align 8
  %22 = load i64, ptr %3, align 8
  call void @_Z19OutputArrayCtrlVarsRKSt6vectorIPK8VariableSaIS2_EERSomi(ptr noundef nonnull align 8 dereferenceable(24) %20, ptr noundef nonnull align 8 dereferenceable(8) %21, i64 noundef %22, i32 noundef 1)
  br label %23

23:                                               ; preds = %18, %1
  %24 = load ptr, ptr %2, align 8
  call void @_Z19HashGlobalVariablesRSo(ptr noundef nonnull align 8 dereferenceable(8) %24)
  %25 = load ptr, ptr %2, align 8
  %26 = call noundef nonnull align 8 dereferenceable(8) ptr @_ZStlsISt11char_traitsIcEERSt13basic_ostreamIcT_ES5_PKc(ptr noundef nonnull align 8 dereferenceable(8) %25, ptr noundef @.str.13)
  %27 = call noundef nonnull align 8 dereferenceable(8) ptr @_ZNSolsEPFRSoS_E(ptr noundef nonnull align 8 dereferenceable(8) %26, ptr noundef @_ZSt4endlIcSt11char_traitsIcEERSt13basic_ostreamIT_T0_ES6_)
  ret void
}